; Function Attrs: mustprogress nounwind uwtable
define dso_local noundef i32 @_ZNK4llvm3pdb16DbiStreamBuilder26calculateModiSubstreamSizeEv(ptr nocapture noundef nonnull readonly align 8 dereferenceable(936) %0) local_unnamed_addr #0 align 2 {
  %2 = getelementptr inbounds nuw i8, ptr %0, i64 64
  %3 = load ptr, ptr %2, align 8
  %4 = getelementptr inbounds i8, ptr %0, i64 72
  %5 = load ptr, ptr %4, align 8
  %.not8 = icmp eq ptr %3, %5
  br i1 %.not8, label %._crit_edge, label %.lr.ph

.lr.ph:                                           ; preds = %1, %.lr.ph
  %.010 = phi i32 [ %8, %.lr.ph ], [ 0, %1 ]
  %.sroa.05.09 = phi ptr [ %9, %.lr.ph ], [ %3, %1 ]
  %6 = load ptr, ptr %.sroa.05.09, align 8
  %7 = tail call noundef i32 @_ZNK4llvm3pdb26DbiModuleDescriptorBuilder25calculateSerializedLengthEv(ptr noundef nonnull align 8 dereferenceable(256) %6) #19
  %8 = add i32 %7, %.010
  %9 = getelementptr inbounds i8, ptr %.sroa.05.09, i64 8
  %.not = icmp eq ptr %9, %5
  br i1 %.not, label %._crit_edge, label %.lr.ph

._crit_edge:                                      ; preds = %.lr.ph, %1
  %.0.lcssa = phi i32 [ 0, %1 ], [ %8, %.lr.ph ]
  ret i32 %.0.lcssa
}